target datalayout = "e-m:e-p270:32:32-p271:32:32-p272:64:64-i64:64-i128:128-f80:128-n8:16:32:64-S128"
target triple = "x86_64-pc-linux-gnu"

%"class.llvm::StringRef" = type { ptr, i64 }
%"class.llvm::SmallVectorBase" = type { ptr, i32, i32 }
%"class.clang::SourceRange" = type { %"class.clang::SourceLocation", %"class.clang::SourceLocation" }
%"class.clang::SourceLocation" = type { i32 }
%"class.(anonymous namespace)::CoverageMappingBuilder" = type { ptr, ptr, ptr, %"class.llvm::SmallDenseMap.754", %"class.llvm::SmallVector.757", %"class.std::vector.762" }
%"class.llvm::SmallDenseMap.754" = type { i32, i32, %"struct.llvm::AlignedCharArrayUnion.756" }
%"struct.llvm::AlignedCharArrayUnion.756" = type { [96 x i8] }
%"class.llvm::SmallVector.757" = type { %"class.llvm::SmallVectorImpl.758", %"struct.llvm::SmallVectorStorage.761" }
%"class.llvm::SmallVectorImpl.758" = type { %"class.llvm::SmallVectorTemplateBase.759" }
%"class.llvm::SmallVectorTemplateBase.759" = type { %"class.llvm::SmallVectorTemplateCommon.760" }
%"class.llvm::SmallVectorTemplateCommon.760" = type { %"class.llvm::SmallVectorBase" }
%"struct.llvm::SmallVectorStorage.761" = type { [1792 x i8] }
%"class.std::vector.762" = type { %"struct.std::_Vector_base.763" }
%"struct.std::_Vector_base.763" = type { %"struct.std::_Vector_base<(anonymous namespace)::SourceMappingRegion, std::allocator<(anonymous namespace)::SourceMappingRegion>>::_Vector_impl" }
%"struct.std::_Vector_base<(anonymous namespace)::SourceMappingRegion, std::allocator<(anonymous namespace)::SourceMappingRegion>>::_Vector_impl" = type { %"struct.std::_Vector_base<(anonymous namespace)::SourceMappingRegion, std::allocator<(anonymous namespace)::SourceMappingRegion>>::_Vector_impl_data" }
%"struct.std::_Vector_base<(anonymous namespace)::SourceMappingRegion, std::allocator<(anonymous namespace)::SourceMappingRegion>>::_Vector_impl_data" = type { ptr, ptr, ptr }
%"class.clang::CharSourceRange" = type <{ %"class.clang::SourceRange", i8, [3 x i8] }>

@.str.31 = private unnamed_addr constant [11 x i8] c"<built-in>\00", align 1

; Function Attrs: mustprogress nounwind uwtable
define linkonce_odr hidden noundef ptr @_ZNK4llvm9StringRef4dataEv(ptr noundef nonnull align 8 dereferenceable(16) %0) #1 comdat align 2 {
  %2 = alloca ptr, align 8
  store ptr %0, ptr %2, align 8
  %3 = load ptr, ptr %2, align 8
  %4 = getelementptr inbounds nuw %"class.llvm::StringRef", ptr %3, i32 0, i32 0
  %5 = load ptr, ptr %4, align 8
  ret ptr %5
}

; Function Attrs: mustprogress nounwind uwtable
define linkonce_odr hidden noundef zeroext i1 @_ZNK4llvm9StringRef5emptyEv(ptr noundef nonnull align 8 dereferenceable(16) %0) #1 comdat align 2 {
  %2 = alloca ptr, align 8
  store ptr %0, ptr %2, align 8
  %3 = load ptr, ptr %2, align 8
  %4 = getelementptr inbounds nuw %"class.llvm::StringRef", ptr %3, i32 0, i32 1
  %5 = load i64, ptr %4, align 8
  %6 = icmp eq i64 %5, 0
  ret i1 %6
}

; Function Attrs: mustprogress nounwind uwtable
define linkonce_odr hidden noundef i64 @_ZNK4llvm9StringRef4sizeEv(ptr noundef nonnull align 8 dereferenceable(16) %0) #1 comdat align 2 {
  %2 = alloca ptr, align 8
  store ptr %0, ptr %2, align 8
  %3 = load ptr, ptr %2, align 8
  %4 = getelementptr inbounds nuw %"class.llvm::StringRef", ptr %3, i32 0, i32 1
  %5 = load i64, ptr %4, align 8
  ret i64 %5
}

; Function Attrs: mustprogress nounwind uwtable
define linkonce_odr hidden noundef i64 @_ZNSt11char_traitsIcE6lengthEPKc(ptr noundef %0) #1 comdat align 2 {
  %2 = alloca ptr, align 8
  store ptr %0, ptr %2, align 8
  %3 = load ptr, ptr %2, align 8
  %4 = call i64 @strlen(ptr noundef %3) #2
  ret i64 %4
}

; Function Attrs: mustprogress nounwind uwtable
define linkonce_odr hidden noundef zeroext i1 @_ZNK5clang14SourceLocation8isFileIDEv(ptr noundef nonnull align 4 dereferenceable(4) %0) #1 comdat align 2 {
  %2 = alloca ptr, align 8
  store ptr %0, ptr %2, align 8
  %3 = load ptr, ptr %2, align 8
  %4 = getelementptr inbounds nuw %"class.clang::SourceLocation", ptr %3, i32 0, i32 0
  %5 = load i32, ptr %4, align 4
  %6 = and i32 %5, -2147483648
  %7 = icmp eq i32 %6, 0
  ret i1 %7
}

; Function Attrs: mustprogress nounwind uwtable
define linkonce_odr hidden i32 @_ZNK5clang11SourceRange8getBeginEv(ptr noundef nonnull align 4 dereferenceable(8) %0) #1 comdat align 2 {
  %2 = alloca %"class.clang::SourceLocation", align 4
  %3 = alloca ptr, align 8
  store ptr %0, ptr %3, align 8
  %4 = load ptr, ptr %3, align 8
  %5 = getelementptr inbounds nuw %"class.clang::SourceRange", ptr %4, i32 0, i32 0
  call void @llvm.memcpy.p0.p0.i64(ptr align 4 %2, ptr align 4 %5, i64 4, i1 false)
  %6 = getelementptr inbounds nuw %"class.clang::SourceLocation", ptr %2, i32 0, i32 0
  %7 = load i32, ptr %6, align 4
  ret i32 %7
}

; Function Attrs: mustprogress nounwind uwtable
define linkonce_odr hidden noundef zeroext i1 @_ZN4llvmeqENS_9StringRefES0_(ptr %0, i64 %1, ptr %2, i64 %3) #1 comdat {
  %5 = alloca i1, align 1
  %6 = alloca %"class.llvm::StringRef", align 8
  %7 = alloca %"class.llvm::StringRef", align 8
  %8 = getelementptr inbounds nuw { ptr, i64 }, ptr %6, i32 0, i32 0
  store ptr %0, ptr %8, align 8
  %9 = getelementptr inbounds nuw { ptr, i64 }, ptr %6, i32 0, i32 1
  store i64 %1, ptr %9, align 8
  %10 = getelementptr inbounds nuw { ptr, i64 }, ptr %7, i32 0, i32 0
  store ptr %2, ptr %10, align 8
  %11 = getelementptr inbounds nuw { ptr, i64 }, ptr %7, i32 0, i32 1
  store i64 %3, ptr %11, align 8
  %12 = call noundef i64 @_ZNK4llvm9StringRef4sizeEv(ptr noundef nonnull align 8 dereferenceable(16) %6)
  %13 = call noundef i64 @_ZNK4llvm9StringRef4sizeEv(ptr noundef nonnull align 8 dereferenceable(16) %7)
  %14 = icmp ne i64 %12, %13
  br i1 %14, label %15, label %16

15:                                               ; preds = %4
  store i1 false, ptr %5, align 1
  br label %25

16:                                               ; preds = %4
  %17 = call noundef zeroext i1 @_ZNK4llvm9StringRef5emptyEv(ptr noundef nonnull align 8 dereferenceable(16) %6)
  br i1 %17, label %18, label %19

18:                                               ; preds = %16
  store i1 true, ptr %5, align 1
  br label %25

19:                                               ; preds = %16
  %20 = call noundef ptr @_ZNK4llvm9StringRef4dataEv(ptr noundef nonnull align 8 dereferenceable(16) %6)
  %21 = call noundef ptr @_ZNK4llvm9StringRef4dataEv(ptr noundef nonnull align 8 dereferenceable(16) %7)
  %22 = call noundef i64 @_ZNK4llvm9StringRef4sizeEv(ptr noundef nonnull align 8 dereferenceable(16) %6)
  %23 = call i32 @memcmp(ptr noundef %20, ptr noundef %21, i64 noundef %22) #20
  %24 = icmp eq i32 %23, 0
  store i1 %24, ptr %5, align 1
  br label %25

25:                                               ; preds = %19, %18, %15
  %26 = load i1, ptr %5, align 1
  ret i1 %26
}

; Function Attrs: mustprogress nounwind uwtable
define linkonce_odr hidden void @_ZN4llvm9StringRefC2EPKc(ptr noundef nonnull align 8 dereferenceable(16) %0, ptr noundef %1) unnamed_addr #1 comdat align 2 {
  %3 = alloca ptr, align 8
  %4 = alloca ptr, align 8
  store ptr %0, ptr %3, align 8
  store ptr %1, ptr %4, align 8
  %5 = load ptr, ptr %3, align 8
  %6 = getelementptr inbounds nuw %"class.llvm::StringRef", ptr %5, i32 0, i32 0
  %7 = load ptr, ptr %4, align 8
  store ptr %7, ptr %6, align 8
  %8 = getelementptr inbounds nuw %"class.llvm::StringRef", ptr %5, i32 0, i32 1
  %9 = load ptr, ptr %4, align 8
  %10 = icmp ne ptr %9, null
  br i1 %10, label %11, label %14

11:                                               ; preds = %2
  %12 = load ptr, ptr %4, align 8
  %13 = call noundef i64 @_ZNSt11char_traitsIcE6lengthEPKc(ptr noundef %12)
  br label %15

14:                                               ; preds = %2
  br label %15

15:                                               ; preds = %14, %11
  %16 = phi i64 [ %13, %11 ], [ 0, %14 ]
  store i64 %16, ptr %8, align 8
  ret void
}

; Function Attrs: mustprogress nounwind uwtable
define linkonce_odr hidden i32 @_ZNK5clang13SourceManager14getSpellingLocENS_14SourceLocationE(ptr noundef nonnull align 8 dereferenceable(696) %0, i32 %1) #1 comdat align 2 {
  %3 = alloca %"class.clang::SourceLocation", align 4
  %4 = alloca %"class.clang::SourceLocation", align 4
  %5 = alloca ptr, align 8
  %6 = alloca %"class.clang::SourceLocation", align 4
  %7 = getelementptr inbounds nuw %"class.clang::SourceLocation", ptr %4, i32 0, i32 0
  store i32 %1, ptr %7, align 4
  store ptr %0, ptr %5, align 8
  %8 = load ptr, ptr %5, align 8
  %9 = call noundef zeroext i1 @_ZNK5clang14SourceLocation8isFileIDEv(ptr noundef nonnull align 4 dereferenceable(4) %4)
  br i1 %9, label %10, label %11

10:                                               ; preds = %2
  call void @llvm.memcpy.p0.p0.i64(ptr align 4 %3, ptr align 4 %4, i64 4, i1 false)
  br label %16

11:                                               ; preds = %2
  call void @llvm.memcpy.p0.p0.i64(ptr align 4 %6, ptr align 4 %4, i64 4, i1 false)
  %12 = getelementptr inbounds nuw %"class.clang::SourceLocation", ptr %6, i32 0, i32 0
  %13 = load i32, ptr %12, align 4
  %14 = call i32 @_ZNK5clang13SourceManager22getSpellingLocSlowCaseENS_14SourceLocationE(ptr noundef nonnull align 8 dereferenceable(696) %8, i32 %13)
  %15 = getelementptr inbounds nuw %"class.clang::SourceLocation", ptr %3, i32 0, i32 0
  store i32 %14, ptr %15, align 4
  br label %16

16:                                               ; preds = %11, %10
  %17 = getelementptr inbounds nuw %"class.clang::SourceLocation", ptr %3, i32 0, i32 0
  %18 = load i32, ptr %17, align 4
  ret i32 %18
}

; Function Attrs: mustprogress nounwind uwtable
define linkonce_odr hidden i32 @_ZNK5clang15CharSourceRange8getBeginEv(ptr noundef nonnull align 4 dereferenceable(9) %0) #1 comdat align 2 {
  %2 = alloca %"class.clang::SourceLocation", align 4
  %3 = alloca ptr, align 8
  store ptr %0, ptr %3, align 8
  %4 = load ptr, ptr %3, align 8
  %5 = getelementptr inbounds nuw %"class.clang::CharSourceRange", ptr %4, i32 0, i32 0
  %6 = call i32 @_ZNK5clang11SourceRange8getBeginEv(ptr noundef nonnull align 4 dereferenceable(8) %5)
  %7 = getelementptr inbounds nuw %"class.clang::SourceLocation", ptr %2, i32 0, i32 0
  store i32 %6, ptr %7, align 4
  %8 = getelementptr inbounds nuw %"class.clang::SourceLocation", ptr %2, i32 0, i32 0
  %9 = load i32, ptr %8, align 4
  ret i32 %9
}

; Function Attrs: mustprogress nounwind uwtable
define internal noundef zeroext i1 @_ZN12_GLOBAL__N_122CoverageMappingBuilder11isInBuiltinEN5clang14SourceLocationE(ptr noundef nonnull align 8 dereferenceable(1960) %0, i32 %1) #1 align 2 {
  %3 = alloca %"class.clang::SourceLocation", align 4
  %4 = alloca ptr, align 8
  %5 = alloca %"class.llvm::StringRef", align 8
  %6 = alloca %"class.clang::SourceLocation", align 4
  %7 = alloca %"class.clang::SourceLocation", align 4
  %8 = alloca %"class.llvm::StringRef", align 8
  %9 = getelementptr inbounds nuw %"class.clang::SourceLocation", ptr %3, i32 0, i32 0
  store i32 %1, ptr %9, align 4
  store ptr %0, ptr %4, align 8
  %10 = load ptr, ptr %4, align 8
  %11 = getelementptr inbounds nuw %"class.(anonymous namespace)::CoverageMappingBuilder", ptr %10, i32 0, i32 1
  %12 = load ptr, ptr %11, align 8
  %13 = getelementptr inbounds nuw %"class.(anonymous namespace)::CoverageMappingBuilder", ptr %10, i32 0, i32 1
  %14 = load ptr, ptr %13, align 8
  call void @llvm.memcpy.p0.p0.i64(ptr align 4 %7, ptr align 4 %3, i64 4, i1 false)
  %15 = getelementptr inbounds nuw %"class.clang::SourceLocation", ptr %7, i32 0, i32 0
  %16 = load i32, ptr %15, align 4
  %17 = call i32 @_ZNK5clang13SourceManager14getSpellingLocENS_14SourceLocationE(ptr noundef nonnull align 8 dereferenceable(696) %14, i32 %16)
  %18 = getelementptr inbounds nuw %"class.clang::SourceLocation", ptr %6, i32 0, i32 0
  store i32 %17, ptr %18, align 4
  %19 = getelementptr inbounds nuw %"class.clang::SourceLocation", ptr %6, i32 0, i32 0
  %20 = load i32, ptr %19, align 4
  %21 = call { ptr, i64 } @_ZNK5clang13SourceManager13getBufferNameENS_14SourceLocationEPb(ptr noundef nonnull align 8 dereferenceable(696) %12, i32 %20, ptr noundef null)
  %22 = getelementptr inbounds nuw { ptr, i64 }, ptr %5, i32 0, i32 0
  %23 = extractvalue { ptr, i64 } %21, 0
  store ptr %23, ptr %22, align 8
  %24 = getelementptr inbounds nuw { ptr, i64 }, ptr %5, i32 0, i32 1
  %25 = extractvalue { ptr, i64 } %21, 1
  store i64 %25, ptr %24, align 8
  call void @_ZN4llvm9StringRefC2EPKc(ptr noundef nonnull align 8 dereferenceable(16) %8, ptr noundef @.str.31)
  %26 = getelementptr inbounds nuw { ptr, i64 }, ptr %5, i32 0, i32 0
  %27 = load ptr, ptr %26, align 8
  %28 = getelementptr inbounds nuw { ptr, i64 }, ptr %5, i32 0, i32 1
  %29 = load i64, ptr %28, align 8
  %30 = getelementptr inbounds nuw { ptr, i64 }, ptr %8, i32 0, i32 0
  %31 = load ptr, ptr %30, align 8
  %32 = getelementptr inbounds nuw { ptr, i64 }, ptr %8, i32 0, i32 1
  %33 = load i64, ptr %32, align 8
  %34 = call noundef zeroext i1 @_ZN4llvmeqENS_9StringRefES0_(ptr %27, i64 %29, ptr %31, i64 %33)
  ret i1 %34
}

; Function Attrs: mustprogress nounwind uwtable
define internal i32 @_ZN12_GLOBAL__N_122CoverageMappingBuilder8getStartEPKN5clang4StmtE(ptr noundef nonnull align 8 dereferenceable(1960) %0, ptr noundef %1) #1 align 2 {
  %3 = alloca %"class.clang::SourceLocation", align 4
  %4 = alloca ptr, align 8
  %5 = alloca ptr, align 8
  %6 = alloca %"class.clang::SourceLocation", align 4
  %7 = alloca %"class.clang::SourceLocation", align 4
  %8 = alloca %"class.clang::SourceLocation", align 4
  %9 = alloca %"class.clang::CharSourceRange", align 4
  %10 = alloca %"class.clang::SourceLocation", align 4
  %11 = alloca { i64, i8 }, align 8
  store ptr %0, ptr %4, align 8
  store ptr %1, ptr %5, align 8
  %12 = load ptr, ptr %4, align 8
  %13 = load ptr, ptr %5, align 8
  %14 = call i32 @_ZNK5clang4Stmt11getBeginLocEv(ptr noundef nonnull align 8 dereferenceable(8) %13) #20
  %15 = getelementptr inbounds nuw %"class.clang::SourceLocation", ptr %3, i32 0, i32 0
  store i32 %14, ptr %15, align 4
  br label %16

16:                                               ; preds = %28, %2
  %17 = getelementptr inbounds nuw %"class.(anonymous namespace)::CoverageMappingBuilder", ptr %12, i32 0, i32 1
  %18 = load ptr, ptr %17, align 8
  call void @llvm.memcpy.p0.p0.i64(ptr align 4 %6, ptr align 4 %3, i64 4, i1 false)
  %19 = getelementptr inbounds nuw %"class.clang::SourceLocation", ptr %6, i32 0, i32 0
  %20 = load i32, ptr %19, align 4
  %21 = call noundef zeroext i1 @_ZNK5clang13SourceManager19isMacroArgExpansionENS_14SourceLocationEPS1_(ptr noundef nonnull align 8 dereferenceable(696) %18, i32 %20, ptr noundef null)
  br i1 %21, label %26, label %22

22:                                               ; preds = %16
  call void @llvm.memcpy.p0.p0.i64(ptr align 4 %7, ptr align 4 %3, i64 4, i1 false)
  %23 = getelementptr inbounds nuw %"class.clang::SourceLocation", ptr %7, i32 0, i32 0
  %24 = load i32, ptr %23, align 4
  %25 = call noundef zeroext i1 @_ZN12_GLOBAL__N_122CoverageMappingBuilder11isInBuiltinEN5clang14SourceLocationE(ptr noundef nonnull align 8 dereferenceable(1960) %12, i32 %24)
  br label %26

26:                                               ; preds = %22, %16
  %27 = phi i1 [ true, %16 ], [ %25, %22 ]
  br i1 %27, label %28, label %36

28:                                               ; preds = %26
  %29 = getelementptr inbounds nuw %"class.(anonymous namespace)::CoverageMappingBuilder", ptr %12, i32 0, i32 1
  %30 = load ptr, ptr %29, align 8
  call void @llvm.memcpy.p0.p0.i64(ptr align 4 %10, ptr align 4 %3, i64 4, i1 false)
  %31 = getelementptr inbounds nuw %"class.clang::SourceLocation", ptr %10, i32 0, i32 0
  %32 = load i32, ptr %31, align 4
  %33 = call { i64, i8 } @_ZNK5clang13SourceManager26getImmediateExpansionRangeENS_14SourceLocationE(ptr noundef nonnull align 8 dereferenceable(696) %30, i32 %32)
  store { i64, i8 } %33, ptr %11, align 8
  call void @llvm.memcpy.p0.p0.i64(ptr align 4 %9, ptr align 8 %11, i64 9, i1 false)
  %34 = call i32 @_ZNK5clang15CharSourceRange8getBeginEv(ptr noundef nonnull align 4 dereferenceable(9) %9)
  %35 = getelementptr inbounds nuw %"class.clang::SourceLocation", ptr %8, i32 0, i32 0
  store i32 %34, ptr %35, align 4
  call void @llvm.memcpy.p0.p0.i64(ptr align 4 %3, ptr align 4 %8, i64 4, i1 false)
  br label %16, !llvm.loop !14

36:                                               ; preds = %26
  %37 = getelementptr inbounds nuw %"class.clang::SourceLocation", ptr %3, i32 0, i32 0
  %38 = load i32, ptr %37, align 4
  ret i32 %38
}