; Function Attrs: mustprogress nounwind uwtable
define internal fastcc i32 @_ZN12_GLOBAL__N_122CoverageMappingBuilder8getStartEPKN5clang4StmtE(ptr nocapture noundef nonnull readonly align 8 dereferenceable(1960) %0, ptr noundef nonnull %1) unnamed_addr #0 align 2 {
  %3 = tail call i32 @_ZNK5clang4Stmt11getBeginLocEv(ptr noundef nonnull align 8 dereferenceable(8) %1) #26
  %4 = getelementptr inbounds nuw i8, ptr %0, i64 8
  br label %5

5:                                                ; preds = %.critedge, %2
  %.sroa.06.0 = phi i32 [ %3, %2 ], [ %.sroa.0.0.extract.trunc, %.critedge ]
  %6 = load ptr, ptr %4, align 8
  %7 = tail call noundef zeroext i1 @_ZNK5clang13SourceManager19isMacroArgExpansionENS_14SourceLocationEPS1_(ptr noundef nonnull align 8 dereferenceable(696) %6, i32 %.sroa.06.0, ptr noundef null) #22
  br i1 %7, label %.critedge, label %8

8:                                                ; preds = %5
  %.val = load ptr, ptr %4, align 8
  %9 = icmp sgt i32 %.sroa.06.0, -1
  br i1 %9, label %_ZNK5clang13SourceManager14getSpellingLocENS_14SourceLocationE.exit.i, label %10

10:                                               ; preds = %8
  %11 = tail call i32 @_ZNK5clang13SourceManager22getSpellingLocSlowCaseENS_14SourceLocationE(ptr noundef nonnull align 8 dereferenceable(696) %.val, i32 %.sroa.06.0) #22
  br label %_ZNK5clang13SourceManager14getSpellingLocENS_14SourceLocationE.exit.i

_ZNK5clang13SourceManager14getSpellingLocENS_14SourceLocationE.exit.i: ; preds = %10, %8
  %.sroa.01.0.i.i = phi i32 [ %11, %10 ], [ %.sroa.06.0, %8 ]
  %12 = tail call { ptr, i64 } @_ZNK5clang13SourceManager13getBufferNameENS_14SourceLocationEPb(ptr noundef nonnull align 8 dereferenceable(696) %.val, i32 %.sroa.01.0.i.i, ptr noundef null) #22
  %13 = extractvalue { ptr, i64 } %12, 1
  %.not.i.i = icmp eq i64 %13, 10
  br i1 %.not.i.i, label %_ZN12_GLOBAL__N_122CoverageMappingBuilder11isInBuiltinEN5clang14SourceLocationE.exit, label %_ZN12_GLOBAL__N_122CoverageMappingBuilder11isInBuiltinEN5clang14SourceLocationE.exit.thread

_ZN12_GLOBAL__N_122CoverageMappingBuilder11isInBuiltinEN5clang14SourceLocationE.exit: ; preds = %_ZNK5clang13SourceManager14getSpellingLocENS_14SourceLocationE.exit.i
  %14 = extractvalue { ptr, i64 } %12, 0
  %bcmp.i.i = tail call i32 @bcmp(ptr noundef nonnull dereferenceable(10) %14, ptr noundef nonnull dereferenceable(10) @.str.31, i64 10)
  %15 = icmp eq i32 %bcmp.i.i, 0
  br i1 %15, label %.critedge, label %_ZN12_GLOBAL__N_122CoverageMappingBuilder11isInBuiltinEN5clang14SourceLocationE.exit.thread

.critedge:                                        ; preds = %5, %_ZN12_GLOBAL__N_122CoverageMappingBuilder11isInBuiltinEN5clang14SourceLocationE.exit
  %16 = load ptr, ptr %4, align 8
  %17 = tail call { i64, i8 } @_ZNK5clang13SourceManager26getImmediateExpansionRangeENS_14SourceLocationE(ptr noundef nonnull align 8 dereferenceable(696) %16, i32 %.sroa.06.0) #22
  %.fca.0.extract = extractvalue { i64, i8 } %17, 0
  %.sroa.0.0.extract.trunc = trunc i64 %.fca.0.extract to i32
  br label %5, !llvm.loop !56

_ZN12_GLOBAL__N_122CoverageMappingBuilder11isInBuiltinEN5clang14SourceLocationE.exit.thread: ; preds = %_ZNK5clang13SourceManager14getSpellingLocENS_14SourceLocationE.exit.i, %_ZN12_GLOBAL__N_122CoverageMappingBuilder11isInBuiltinEN5clang14SourceLocationE.exit
  ret i32 %.sroa.06.0
}